target datalayout = "e-m:e-p270:32:32-p271:32:32-p272:64:64-i64:64-i128:128-f80:128-n8:16:32:64-S128"
target triple = "x86_64-pc-linux-gnu"

%struct.cache_tree = type { i32, %struct.object_id, i32, i32, ptr }
%struct.object_id = type { [32 x i8], i32 }
%struct.cache_tree_sub = type { ptr, i32, i32, i32, [0 x i8] }

; Function Attrs: nounwind uwtable
define internal i32 @subtree_name_cmp(ptr noundef %0, i32 noundef %1, ptr noundef %2, i32 noundef %3) #0 {
  %5 = alloca i32, align 4
  %6 = alloca ptr, align 8
  %7 = alloca i32, align 4
  %8 = alloca ptr, align 8
  %9 = alloca i32, align 4
  store ptr %0, ptr %6, align 8, !tbaa !23
  store i32 %1, ptr %7, align 4, !tbaa !16
  store ptr %2, ptr %8, align 8, !tbaa !23
  store i32 %3, ptr %9, align 4, !tbaa !16
  %10 = load i32, ptr %7, align 4, !tbaa !16
  %11 = load i32, ptr %9, align 4, !tbaa !16
  %12 = icmp slt i32 %10, %11
  br i1 %12, label %13, label %14

13:                                               ; preds = %4
  store i32 -1, ptr %5, align 4
  br label %25

14:                                               ; preds = %4
  %15 = load i32, ptr %9, align 4, !tbaa !16
  %16 = load i32, ptr %7, align 4, !tbaa !16
  %17 = icmp slt i32 %15, %16
  br i1 %17, label %18, label %19

18:                                               ; preds = %14
  store i32 1, ptr %5, align 4
  br label %25

19:                                               ; preds = %14
  %20 = load ptr, ptr %6, align 8, !tbaa !23
  %21 = load ptr, ptr %8, align 8, !tbaa !23
  %22 = load i32, ptr %7, align 4, !tbaa !16
  %23 = sext i32 %22 to i64
  %24 = call i32 @memcmp(ptr noundef %20, ptr noundef %21, i64 noundef %23) #11
  store i32 %24, ptr %5, align 4
  br label %25

25:                                               ; preds = %19, %18, %13
  %26 = load i32, ptr %5, align 4
  ret i32 %26
}

; Function Attrs: nounwind uwtable
define dso_local i32 @cache_tree_subtree_pos(ptr noundef %0, ptr noundef %1, i32 noundef %2) #0 {
  %4 = alloca i32, align 4
  %5 = alloca ptr, align 8
  %6 = alloca ptr, align 8
  %7 = alloca i32, align 4
  %8 = alloca ptr, align 8
  %9 = alloca i32, align 4
  %10 = alloca i32, align 4
  %11 = alloca i32, align 4
  %12 = alloca ptr, align 8
  %13 = alloca i32, align 4
  %14 = alloca i32, align 4
  store ptr %0, ptr %5, align 8, !tbaa !4
  store ptr %1, ptr %6, align 8, !tbaa !23
  store i32 %2, ptr %7, align 4, !tbaa !16
  call void @llvm.lifetime.start.p0(i64 8, ptr %8) #10
  %15 = load ptr, ptr %5, align 8, !tbaa !4
  %16 = getelementptr inbounds nuw %struct.cache_tree, ptr %15, i32 0, i32 4
  %17 = load ptr, ptr %16, align 8, !tbaa !18
  store ptr %17, ptr %8, align 8, !tbaa !25
  call void @llvm.lifetime.start.p0(i64 4, ptr %9) #10
  call void @llvm.lifetime.start.p0(i64 4, ptr %10) #10
  store i32 0, ptr %9, align 4, !tbaa !16
  %18 = load ptr, ptr %5, align 8, !tbaa !4
  %19 = getelementptr inbounds nuw %struct.cache_tree, ptr %18, i32 0, i32 2
  %20 = load i32, ptr %19, align 8, !tbaa !17
  store i32 %20, ptr %10, align 4, !tbaa !16
  br label %21

21:                                               ; preds = %61, %3
  %22 = load i32, ptr %9, align 4, !tbaa !16
  %23 = load i32, ptr %10, align 4, !tbaa !16
  %24 = icmp slt i32 %22, %23
  br i1 %24, label %25, label %62

25:                                               ; preds = %21
  call void @llvm.lifetime.start.p0(i64 4, ptr %11) #10
  %26 = load i32, ptr %9, align 4, !tbaa !16
  %27 = load i32, ptr %10, align 4, !tbaa !16
  %28 = load i32, ptr %9, align 4, !tbaa !16
  %29 = sub nsw i32 %27, %28
  %30 = sdiv i32 %29, 2
  %31 = add nsw i32 %26, %30
  store i32 %31, ptr %11, align 4, !tbaa !16
  call void @llvm.lifetime.start.p0(i64 8, ptr %12) #10
  %32 = load ptr, ptr %8, align 8, !tbaa !25
  %33 = load i32, ptr %11, align 4, !tbaa !16
  %34 = sext i32 %33 to i64
  %35 = getelementptr inbounds ptr, ptr %32, i64 %34
  %36 = load ptr, ptr %35, align 8, !tbaa !19
  store ptr %36, ptr %12, align 8, !tbaa !19
  call void @llvm.lifetime.start.p0(i64 4, ptr %13) #10
  %37 = load ptr, ptr %6, align 8, !tbaa !23
  %38 = load i32, ptr %7, align 4, !tbaa !16
  %39 = load ptr, ptr %12, align 8, !tbaa !19
  %40 = getelementptr inbounds nuw %struct.cache_tree_sub, ptr %39, i32 0, i32 4
  %41 = getelementptr inbounds [0 x i8], ptr %40, i64 0, i64 0
  %42 = load ptr, ptr %12, align 8, !tbaa !19
  %43 = getelementptr inbounds nuw %struct.cache_tree_sub, ptr %42, i32 0, i32 2
  %44 = load i32, ptr %43, align 4, !tbaa !16
  %45 = call i32 @subtree_name_cmp(ptr noundef %37, i32 noundef %38, ptr noundef %41, i32 noundef %44)
  store i32 %45, ptr %13, align 4, !tbaa !16
  %46 = load i32, ptr %13, align 4, !tbaa !16
  %47 = icmp ne i32 %46, 0
  br i1 %47, label %50, label %48

48:                                               ; preds = %25
  %49 = load i32, ptr %11, align 4, !tbaa !16
  store i32 %49, ptr %4, align 4
  store i32 1, ptr %14, align 4
  br label %59

50:                                               ; preds = %25
  %51 = load i32, ptr %13, align 4, !tbaa !16
  %52 = icmp slt i32 %51, 0
  br i1 %52, label %53, label %55

53:                                               ; preds = %50
  %54 = load i32, ptr %11, align 4, !tbaa !16
  store i32 %54, ptr %10, align 4, !tbaa !16
  br label %58

55:                                               ; preds = %50
  %56 = load i32, ptr %11, align 4, !tbaa !16
  %57 = add nsw i32 %56, 1
  store i32 %57, ptr %9, align 4, !tbaa !16
  br label %58

58:                                               ; preds = %55, %53
  store i32 0, ptr %14, align 4
  br label %59

59:                                               ; preds = %58, %48
  call void @llvm.lifetime.end.p0(i64 4, ptr %13) #10
  call void @llvm.lifetime.end.p0(i64 8, ptr %12) #10
  call void @llvm.lifetime.end.p0(i64 4, ptr %11) #10
  %60 = load i32, ptr %14, align 4
  switch i32 %60, label %66 [
    i32 0, label %61
  ]

61:                                               ; preds = %59
  br label %21, !llvm.loop !26

62:                                               ; preds = %21
  %63 = load i32, ptr %9, align 4, !tbaa !16
  %64 = sub nsw i32 0, %63
  %65 = sub nsw i32 %64, 1
  store i32 %65, ptr %4, align 4
  store i32 1, ptr %14, align 4
  br label %66

66:                                               ; preds = %62, %59
  call void @llvm.lifetime.end.p0(i64 4, ptr %10) #10
  call void @llvm.lifetime.end.p0(i64 4, ptr %9) #10
  call void @llvm.lifetime.end.p0(i64 8, ptr %8) #10
  %67 = load i32, ptr %4, align 4
  ret i32 %67
}