; Function Attrs: nofree nounwind memory(read, inaccessiblemem: none) uwtable
define dso_local i32 @cache_tree_subtree_pos(ptr noundef readonly captures(none) %0, ptr noundef readonly captures(none) %1, i32 noundef %2) local_unnamed_addr #4 {
  %4 = getelementptr inbounds nuw i8, ptr %0, i64 48
  %5 = load ptr, ptr %4, align 8, !tbaa !15
  %6 = getelementptr inbounds nuw i8, ptr %0, i64 40
  %7 = load i32, ptr %6, align 8, !tbaa !14
  %8 = sext i32 %2 to i64
  br label %9

9:                                                ; preds = %subtree_name_cmp.exit, %3
  %.024 = phi i32 [ %7, %3 ], [ %.226, %subtree_name_cmp.exit ]
  %.021 = phi i32 [ 0, %3 ], [ %.223, %subtree_name_cmp.exit ]
  %10 = icmp slt i32 %.021, %.024
  br i1 %10, label %11, label %28

11:                                               ; preds = %9
  %12 = sub nsw i32 %.024, %.021
  %13 = sdiv i32 %12, 2
  %14 = add nsw i32 %13, %.021
  %15 = sext i32 %14 to i64
  %16 = getelementptr inbounds ptr, ptr %5, i64 %15
  %17 = load ptr, ptr %16, align 8, !tbaa !16
  %18 = getelementptr inbounds nuw i8, ptr %17, i64 20
  %19 = getelementptr inbounds nuw i8, ptr %17, i64 12
  %20 = load i32, ptr %19, align 4, !tbaa !20
  %21 = icmp slt i32 %2, %20
  br i1 %21, label %subtree_name_cmp.exit, label %22

22:                                               ; preds = %11
  %23 = icmp slt i32 %20, %2
  br i1 %23, label %subtree_name_cmp.exit, label %24

24:                                               ; preds = %22
  %25 = tail call i32 @memcmp(ptr noundef readonly %1, ptr noundef nonnull readonly %18, i64 noundef %8) #19
  br label %subtree_name_cmp.exit

subtree_name_cmp.exit:                            ; preds = %11, %22, %24
  %.0.i = phi i32 [ %25, %24 ], [ -1, %11 ], [ 1, %22 ]
  %.not.not = icmp eq i32 %.0.i, 0
  %26 = icmp slt i32 %.0.i, 0
  %27 = add nsw i32 %14, 1
  %.226 = select i1 %26, i32 %14, i32 %.024
  %.223 = select i1 %26, i32 %.021, i32 %27
  br i1 %.not.not, label %.loopexit, label %9, !llvm.loop !21

28:                                               ; preds = %9
  %29 = xor i32 %.021, -1
  br label %.loopexit

.loopexit:                                        ; preds = %subtree_name_cmp.exit, %28
  %.2 = phi i32 [ %29, %28 ], [ %14, %subtree_name_cmp.exit ]
  ret i32 %.2
}